; Function Attrs: mustprogress nounwind uwtable
define internal fastcc void @_ZN4absl10FixedArrayIN12_GLOBAL__N_118ConstructionTesterELm1000ESaIS2_EED2Ev(ptr noundef nonnull readonly align 8 captures(none) dereferenceable(16016) %0) unnamed_addr #12 align 2 personality ptr @__gxx_personality_v0 {
  %2 = getelementptr inbounds nuw i8, ptr %0, i64 16008
  %.val = load ptr, ptr %2, align 8, !tbaa !878
  %3 = getelementptr inbounds nuw i8, ptr %0, i64 16000
  %.val4 = load i64, ptr %3, align 8, !tbaa !59
  %4 = getelementptr inbounds nuw %"class.(anonymous namespace)::ConstructionTester", ptr %.val, i64 %.val4
  %.not8 = icmp eq i64 %.val4, 0
  br i1 %.not8, label %_ZN4absl10FixedArrayIN12_GLOBAL__N_118ConstructionTesterELm1000ESaIS2_EE7StorageD2Ev.exit, label %.lr.ph.preheader

.lr.ph.preheader:                                 ; preds = %1
  %_ZN12_GLOBAL__N_118ConstructionTester12destructionsE.promoted = load i32, ptr @_ZN12_GLOBAL__N_118ConstructionTester12destructionsE, align 4
  br label %.lr.ph

5:                                                ; preds = %.lr.ph
  store i32 %10, ptr @_ZN12_GLOBAL__N_118ConstructionTester12destructionsE, align 4, !tbaa !28
  %6 = icmp ult i64 %.val4, 1001
  br i1 %6, label %_ZN4absl10FixedArrayIN12_GLOBAL__N_118ConstructionTesterELm1000ESaIS2_EE7StorageD2Ev.exit, label %7

7:                                                ; preds = %5
  %.val7 = load ptr, ptr %2, align 8
  %8 = shl i64 %.val4, 4
  tail call void @_ZdlPvm(ptr noundef %.val7, i64 noundef %8) #29
  br label %_ZN4absl10FixedArrayIN12_GLOBAL__N_118ConstructionTesterELm1000ESaIS2_EE7StorageD2Ev.exit

_ZN4absl10FixedArrayIN12_GLOBAL__N_118ConstructionTesterELm1000ESaIS2_EE7StorageD2Ev.exit: ; preds = %1, %5, %7
  ret void

.lr.ph:                                           ; preds = %.lr.ph.preheader, %.lr.ph
  %.09 = phi ptr [ %11, %.lr.ph ], [ %.val, %.lr.ph.preheader ]
  %9 = phi i32 [ %10, %.lr.ph ], [ %_ZN12_GLOBAL__N_118ConstructionTester12destructionsE.promoted, %.lr.ph.preheader ]
  store ptr null, ptr %.09, align 8, !tbaa !834
  %10 = add nsw i32 %9, 1
  %11 = getelementptr inbounds nuw i8, ptr %.09, i64 16
  %.not = icmp eq ptr %11, %4
  br i1 %.not, label %5, label %.lr.ph, !llvm.loop !884
}